target datalayout = "e-m:e-p270:32:32-p271:32:32-p272:64:64-i64:64-i128:128-f80:128-n8:16:32:64-S128"
target triple = "x86_64-pc-linux-gnu"

@_ZN29java_lang_reflect_Constructor12_slot_offsetE = hidden global i32 0, align 4

; Function Attrs: mustprogress nounwind uwtable
define linkonce_odr hidden noundef i64 @_Z13cast_from_oopIlET_P7oopDesc(ptr noundef %0) #1 comdat {
  %2 = alloca ptr, align 8
  store ptr %0, ptr %2, align 8
  %3 = load ptr, ptr %2, align 8
  %4 = ptrtoint ptr %3 to i64
  ret i64 %4
}

; Function Attrs: mustprogress nounwind uwtable
define linkonce_odr hidden noundef ptr @_ZNK7oopDesc6as_oopEv(ptr noundef nonnull align 8 dereferenceable(16) %0) #1 comdat align 2 {
  %2 = alloca ptr, align 8
  store ptr %0, ptr %2, align 8
  %3 = load ptr, ptr %2, align 8
  ret ptr %3
}

; Function Attrs: mustprogress nounwind uwtable
define linkonce_odr hidden noundef ptr @_ZNK7oopDesc10field_addrIiEEPT_i(ptr noundef nonnull align 8 dereferenceable(16) %0, i32 noundef %1) #1 comdat align 2 {
  %3 = alloca ptr, align 8
  %4 = alloca i32, align 4
  store ptr %0, ptr %3, align 8
  store i32 %1, ptr %4, align 4
  %5 = load ptr, ptr %3, align 8
  %6 = call noundef ptr @_ZNK7oopDesc6as_oopEv(ptr noundef nonnull align 8 dereferenceable(16) %5)
  %7 = call noundef i64 @_Z13cast_from_oopIlET_P7oopDesc(ptr noundef %6)
  %8 = load i32, ptr %4, align 4
  %9 = sext i32 %8 to i64
  %10 = add nsw i64 %7, %9
  %11 = inttoptr i64 %10 to ptr
  ret ptr %11
}

; Function Attrs: mustprogress nounwind uwtable
define linkonce_odr hidden noundef i32 @_ZNK7oopDesc9int_fieldEi(ptr noundef nonnull align 8 dereferenceable(16) %0, i32 noundef %1) #1 comdat align 2 {
  %3 = alloca ptr, align 8
  %4 = alloca i32, align 4
  store ptr %0, ptr %3, align 8
  store i32 %1, ptr %4, align 4
  %5 = load ptr, ptr %3, align 8
  %6 = load i32, ptr %4, align 4
  %7 = call noundef ptr @_ZNK7oopDesc10field_addrIiEEPT_i(ptr noundef nonnull align 8 dereferenceable(16) %5, i32 noundef %6)
  %8 = load i32, ptr %7, align 4
  ret i32 %8
}

; Function Attrs: mustprogress nounwind uwtable
define hidden noundef i32 @_ZN29java_lang_reflect_Constructor4slotEP7oopDesc(ptr noundef %0) #1 align 2 {
  %2 = alloca ptr, align 8
  store ptr %0, ptr %2, align 8
  %3 = load ptr, ptr %2, align 8
  %4 = load i32, ptr @_ZN29java_lang_reflect_Constructor12_slot_offsetE, align 4
  %5 = call noundef i32 @_ZNK7oopDesc9int_fieldEi(ptr noundef nonnull align 8 dereferenceable(16) %3, i32 noundef %4)
  ret i32 %5
}